Certificate:
    Data:
        Version: 1 (0x0)
        Serial Number: 3 (0x3)
    Signature Algorithm: sha256WithRSAEncryption
        Issuer: C=CN, ST=NB, L=NB, O=rik, OU=rik, CN=ws/emailAddress=rik@faf.com
        Validity
            Not Before: Dec 14 02:03:12 2017 GMT
            Not After : Dec 14 02:03:12 2018 GMT
        Subject: C=CN, ST=NB, O=rik, OU=rik, CN=192.168.12.66
        Subject Public Key Info:
            Public Key Algorithm: rsaEncryption
                Public-Key: (2048 bit)
                Modulus:
                    00:bc:cb:f1:85:49:af:05:81:f5:bc:6c:33:54:6a:
                    e0:6d:b8:54:1c:17:b5:95:ce:94:c5:d8:e9:af:35:
                    ca:98:a2:14:52:8e:bf:e2:3c:7c:ef:d8:7f:d1:1c:
                    63:8d:2f:93:a0:e8:39:b8:a1:0d:fa:e0:e2:f0:7b:
                    6f:84:0b:9c:ee:8d:de:3e:07:d1:ab:ca:cf:16:49:
                    52:e1:72:46:38:6c:fc:1c:15:44:2c:e8:5b:26:31:
                    3a:b2:77:59:64:93:ec:8a:f8:0b:42:8c:0b:72:44:
                    15:c6:e2:6e:77:9a:3a:fc:8f:28:13:b6:e9:38:cf:
                    69:37:f8:70:f0:6e:c5:a2:d8:6a:47:12:79:95:9d:
                    2f:c6:3b:c6:b7:a2:7c:d1:33:92:96:42:23:dd:f1:
                    2b:52:5c:db:bd:12:88:ac:e6:2e:b6:63:0f:67:24:
                    df:6d:bf:48:12:64:1c:87:3c:91:f0:e7:f9:b0:2e:
                    9f:ab:b5:d9:b9:f8:57:25:84:43:75:fa:d1:45:ce:
                    64:e9:3c:40:27:63:57:6d:4b:1f:49:e6:f3:74:5e:
                    ab:a5:e5:62:94:3e:87:6a:bd:30:df:9e:ac:d6:bc:
                    df:cd:bf:03:59:cb:17:b2:c6:d3:d3:62:92:34:a0:
                    dc:59:b1:5c:b0:6e:41:06:80:19:32:22:55:f6:cb:
                    07:1f
                Exponent: 65537 (0x10001)
    Signature Algorithm: sha256WithRSAEncryption
         c1:d1:72:21:aa:44:7c:21:7d:29:0b:49:53:c1:1a:c2:59:36:
         eb:e1:8a:20:35:50:ca:fe:ec:9f:c0:6c:c2:2a:18:15:75:aa:
         3a:5f:b7:35:0c:51:16:1d:17:1b:0f:ef:2c:50:f2:c2:ca:09:
         8e:52:b7:38:3b:05:c3:18:54:e7:9a:95:18:40:e8:36:a9:59:
         08:66:ee:c4:77:d7:9c:cc:36:c1:95:18:f6:f6:dc:f1:f0:6a:
         f4:fe:21:2c:68:c7:0d:69:51:03:bf:19:77:83:85:14:ff:0f:
         73:96:db:35:4f:42:af:f5:df:af:a6:96:0d:9e:55:a3:1c:56:
         e3:06:77:3d:36:a1:01:7f:a6:57:ce:58:ab:17:a4:ba:c9:48:
         10:58:7e:a4:e1:b0:5a:2a:ab:04:2c:04:a4:4d:b3:24:3e:06:
         b7:23:7b:2a:56:f4:e5:00:15:4f:d7:55:9d:1e:bd:69:cd:ea:
         78:30:3b:5f:5d:3e:e3:dd:4a:5c:c3:77:6a:1e:f1:56:1d:8d:
         3c:2b:de:d9:1f:02:b8:1d:97:2b:75:e4:d6:0d:e1:11:2d:76:
         5b:d3:14:83:7d:22:4a:f0:b1:d6:30:25:7a:9f:21:71:e1:d2:
         f8:1b:13:7f:3a:d9:20:55:f2:2a:f5:5a:f6:fe:e5:9b:67:de:
         8b:8e:84:bb
-----BEGIN CERTIFICATE-----
MIIDLjCCAhYCAQMwDQYJKoZIhvcNAQELBQAwbDELMAkGA1UEBhMCQ04xCzAJBgNV
BAgMAk5CMQswCQYDVQQHDAJOQjEMMAoGA1UECgwDcmlrMQwwCgYDVQQLDANyaWsx
CzAJBgNVBAMMAndzMRowGAYJKoZIhvcNAQkBFgtyaWtAZmFmLmNvbTAeFw0xNzEy
MTQwMjAzMTJaFw0xODEyMTQwMjAzMTJaME4xCzAJBgNVBAYTAkNOMQswCQYDVQQI
DAJOQjEMMAoGA1UECgwDcmlrMQwwCgYDVQQLDANyaWsxFjAUBgNVBAMMDTE5Mi4x
NjguMTIuNjYwggEiMA0GCSqGSIb3DQEBAQUAA4IBDwAwggEKAoIBAQC8y/GFSa8F
gfW8bDNUauBtuFQcF7WVzpTF2OmvNcqYohRSjr/iPHzv2H/RHGONL5Og6Dm4oQ36
4OLwe2+EC5zujd4+B9Grys8WSVLhckY4bPwcFUQs6FsmMTqyd1lkk+yK+AtCjAty
RBXG4m53mjr8jygTtuk4z2k3+HDwbsWi2GpHEnmVnS/GO8a3onzRM5KWQiPd8StS
XNu9Eois5i62Yw9nJN9tv0gSZByHPJHw5/mwLp+rtdm5+FclhEN1+tFFzmTpPEAn
Y1dtSx9J5vN0Xqul5WKUPodqvTDfnqzWvN/NvwNZyxeyxtPTYpI0oNxZsVywbkEG
gBkyIlX2ywcfAgMBAAEwDQYJKoZIhvcNAQELBQADggEBAMHRciGqRHwhfSkLSVPB
GsJZNuvhiiA1UMr+7J/AbMIqGBV1qjpftzUMURYdFxsP7yxQ8sLKCY5Stzg7BcMY
VOealRhA6DapWQhm7sR315zMNsGVGPb23PHwavT+ISxoxw1pUQO/GXeDhRT/D3OW
2zVPQq/136+mlg2eVaMcVuMGdz02oQF/plfOWKsXpLrJSBBYfqThsFoqqwQsBKRN
syQ+BrcjeypW9OUAFU/XVZ0evWnN6ngwO19dPuPdSlzDd2oe8VYdjTwr3tkfArgd
lyt15NYN4REtdlvTFIN9IkrwsdYwJXqfIXHh0vgbE3862SBV8ir1Wvb+5Ztn3ouO
hLs=
-----END CERTIFICATE-----
